target datalayout = "e-m:e-p270:32:32-p271:32:32-p272:64:64-i64:64-i128:128-f80:128-n8:16:32:64-S128"
target triple = "x86_64-pc-linux-gnu"

@hf_dis_entityKind = internal global i32 0, align 4
@hf_dis_entityDomain = internal global i32 0, align 4
@hf_dis_category = internal global i32 0, align 4
@hf_dis_subcategory = internal global i32 0, align 4
@hf_dis_specific = internal global i32 0, align 4
@hf_dis_extra = internal global i32 0, align 4
@hf_dis_country = internal global i32 0, align 4
@hf_dis_warhead = internal global i32 0, align 4
@hf_dis_fuse = internal global i32 0, align 4
@hf_dis_quality = internal global i32 0, align 4
@hf_dis_rate = internal global i32 0, align 4
@ett_entity_type = internal global i32 0, align 4
@ett_burst_descriptor = internal global i32 0, align 4
@.str.935 = private unnamed_addr constant [9 x i8] c"Munition\00", align 1
@.str.4106 = private unnamed_addr constant [17 x i8] c"Burst Descriptor\00", align 1

; Function Attrs: nounwind uwtable
define internal i32 @dissect_DIS_FIELDS_ENTITY_TYPE(ptr noundef %0, ptr noundef %1, i32 noundef %2, ptr noundef %3) #0 {
  %5 = alloca ptr, align 8
  %6 = alloca ptr, align 8
  %7 = alloca i32, align 4
  %8 = alloca ptr, align 8
  store ptr %0, ptr %5, align 8
  store ptr %1, ptr %6, align 8
  store i32 %2, ptr %7, align 4
  store ptr %3, ptr %8, align 8
  %9 = load ptr, ptr %5, align 8
  %10 = load ptr, ptr %6, align 8
  %11 = load i32, ptr %7, align 4
  %12 = load ptr, ptr %8, align 8
  %13 = load i32, ptr @ett_entity_type, align 4
  %14 = load i32, ptr @hf_dis_entityKind, align 4
  %15 = load i32, ptr @hf_dis_entityDomain, align 4
  %16 = load i32, ptr @hf_dis_country, align 4
  %17 = load i32, ptr @hf_dis_category, align 4
  %18 = load i32, ptr @hf_dis_subcategory, align 4
  %19 = load i32, ptr @hf_dis_specific, align 4
  %20 = load i32, ptr @hf_dis_extra, align 4
  %21 = call i32 @dissect_DIS_FIELDS_ENTITY_TYPE_RECORD(ptr noundef %9, ptr noundef %10, i32 noundef %11, ptr noundef %12, i32 noundef %13, i32 noundef %14, i32 noundef %15, i32 noundef %16, i32 noundef %17, i32 noundef %18, i32 noundef %19, i32 noundef %20)
  ret i32 %21
}

; Function Attrs: nounwind uwtable
define internal i32 @dissect_DIS_FIELDS_BURST_DESCRIPTOR(ptr noundef %0, ptr noundef %1, i32 noundef %2) #0 {
  %4 = alloca ptr, align 8
  %5 = alloca ptr, align 8
  %6 = alloca i32, align 4
  %7 = alloca ptr, align 8
  store ptr %0, ptr %4, align 8
  store ptr %1, ptr %5, align 8
  store i32 %2, ptr %6, align 4
  %8 = load ptr, ptr %5, align 8
  %9 = load ptr, ptr %4, align 8
  %10 = load i32, ptr %6, align 4
  %11 = load i32, ptr @ett_burst_descriptor, align 4
  %12 = call ptr @proto_tree_add_subtree(ptr noundef %8, ptr noundef %9, i32 noundef %10, i32 noundef 16, i32 noundef %11, ptr noundef null, ptr noundef @.str.4106)
  store ptr %12, ptr %7, align 8
  %13 = load ptr, ptr %4, align 8
  %14 = load ptr, ptr %7, align 8
  %15 = load i32, ptr %6, align 4
  %16 = call i32 @dissect_DIS_FIELDS_ENTITY_TYPE(ptr noundef %13, ptr noundef %14, i32 noundef %15, ptr noundef @.str.935)
  store i32 %16, ptr %6, align 4
  %17 = load ptr, ptr %7, align 8
  %18 = load i32, ptr @hf_dis_warhead, align 4
  %19 = load ptr, ptr %4, align 8
  %20 = load i32, ptr %6, align 4
  %21 = call ptr @proto_tree_add_item(ptr noundef %17, i32 noundef %18, ptr noundef %19, i32 noundef %20, i32 noundef 2, i32 noundef 0)
  %22 = load i32, ptr %6, align 4
  %23 = add i32 %22, 2
  store i32 %23, ptr %6, align 4
  %24 = load ptr, ptr %7, align 8
  %25 = load i32, ptr @hf_dis_fuse, align 4
  %26 = load ptr, ptr %4, align 8
  %27 = load i32, ptr %6, align 4
  %28 = call ptr @proto_tree_add_item(ptr noundef %24, i32 noundef %25, ptr noundef %26, i32 noundef %27, i32 noundef 2, i32 noundef 0)
  %29 = load i32, ptr %6, align 4
  %30 = add i32 %29, 2
  store i32 %30, ptr %6, align 4
  %31 = load ptr, ptr %7, align 8
  %32 = load i32, ptr @hf_dis_quality, align 4
  %33 = load ptr, ptr %4, align 8
  %34 = load i32, ptr %6, align 4
  %35 = call ptr @proto_tree_add_item(ptr noundef %31, i32 noundef %32, ptr noundef %33, i32 noundef %34, i32 noundef 2, i32 noundef 0)
  %36 = load i32, ptr %6, align 4
  %37 = add i32 %36, 2
  store i32 %37, ptr %6, align 4
  %38 = load ptr, ptr %7, align 8
  %39 = load i32, ptr @hf_dis_rate, align 4
  %40 = load ptr, ptr %4, align 8
  %41 = load i32, ptr %6, align 4
  %42 = call ptr @proto_tree_add_item(ptr noundef %38, i32 noundef %39, ptr noundef %40, i32 noundef %41, i32 noundef 2, i32 noundef 0)
  %43 = load i32, ptr %6, align 4
  %44 = add i32 %43, 2
  store i32 %44, ptr %6, align 4
  %45 = load i32, ptr %6, align 4
  ret i32 %45
}