; Function Attrs: nounwind uwtable
define internal fastcc noundef i32 @dissect_DIS_FIELDS_BURST_DESCRIPTOR(ptr noundef %0, ptr noundef %1, i32 noundef %2) unnamed_addr #0 {
  %4 = load i32, ptr @ett_burst_descriptor, align 4
  %5 = tail call ptr @proto_tree_add_subtree(ptr noundef %1, ptr noundef %0, i32 noundef %2, i32 noundef 16, i32 noundef %4, ptr noundef null, ptr noundef nonnull @.str.4106) #4
  %6 = load i32, ptr @ett_entity_type, align 4
  %7 = load i32, ptr @hf_dis_entityKind, align 4
  %8 = load i32, ptr @hf_dis_entityDomain, align 4
  %9 = load i32, ptr @hf_dis_country, align 4
  %10 = load i32, ptr @hf_dis_category, align 4
  %11 = load i32, ptr @hf_dis_subcategory, align 4
  %12 = load i32, ptr @hf_dis_specific, align 4
  %13 = load i32, ptr @hf_dis_extra, align 4
  %14 = tail call fastcc noundef i32 @dissect_DIS_FIELDS_ENTITY_TYPE_RECORD(ptr noundef %0, ptr noundef %5, i32 noundef %2, ptr noundef nonnull @.str.935, i32 noundef %6, i32 noundef %7, i32 noundef %8, i32 noundef %9, i32 noundef %10, i32 noundef %11, i32 noundef %12, i32 noundef %13)
  %15 = load i32, ptr @hf_dis_warhead, align 4
  %16 = tail call ptr @proto_tree_add_item(ptr noundef %5, i32 noundef %15, ptr noundef %0, i32 noundef %14, i32 noundef 2, i32 noundef 0) #4
  %17 = add i32 %14, 2
  %18 = load i32, ptr @hf_dis_fuse, align 4
  %19 = tail call ptr @proto_tree_add_item(ptr noundef %5, i32 noundef %18, ptr noundef %0, i32 noundef %17, i32 noundef 2, i32 noundef 0) #4
  %20 = add i32 %14, 4
  %21 = load i32, ptr @hf_dis_quality, align 4
  %22 = tail call ptr @proto_tree_add_item(ptr noundef %5, i32 noundef %21, ptr noundef %0, i32 noundef %20, i32 noundef 2, i32 noundef 0) #4
  %23 = add i32 %14, 6
  %24 = load i32, ptr @hf_dis_rate, align 4
  %25 = tail call ptr @proto_tree_add_item(ptr noundef %5, i32 noundef %24, ptr noundef %0, i32 noundef %23, i32 noundef 2, i32 noundef 0) #4
  %26 = add i32 %14, 8
  ret i32 %26
}